target datalayout = "e-m:e-p270:32:32-p271:32:32-p272:64:64-i64:64-i128:128-f80:128-n8:16:32:64-S128"
target triple = "x86_64-pc-linux-gnu"

; Function Attrs: mustprogress nounwind uwtable
define noundef float @_ZN2cv16phase_unwrapping29HistogramPhaseUnwrapping_Impl4wrapEff(ptr noundef nonnull align 8 dereferenceable(104) %0, float noundef %1, float noundef %2) #0 align 2 {
  %4 = alloca ptr, align 8
  %5 = alloca float, align 4
  %6 = alloca float, align 4
  %7 = alloca float, align 4
  %8 = alloca float, align 4
  %9 = alloca float, align 4
  store ptr %0, ptr %4, align 8, !tbaa !16
  store float %1, ptr %5, align 4, !tbaa !24
  store float %2, ptr %6, align 4, !tbaa !24
  call void @llvm.lifetime.start.p0(i64 4, ptr %7) #18
  call void @llvm.lifetime.start.p0(i64 4, ptr %8) #18
  %10 = load float, ptr %5, align 4, !tbaa !24
  %11 = load float, ptr %6, align 4, !tbaa !24
  %12 = fsub float %10, %11
  store float %12, ptr %8, align 4, !tbaa !24
  call void @llvm.lifetime.start.p0(i64 4, ptr %9) #18
  store float 0x400921FB60000000, ptr %9, align 4, !tbaa !24
  %13 = load float, ptr %8, align 4, !tbaa !24
  %14 = load float, ptr %9, align 4, !tbaa !24
  %15 = fcmp ogt float %13, %14
  br i1 %15, label %16, label %20

16:                                               ; preds = %3
  %17 = load float, ptr %8, align 4, !tbaa !24
  %18 = load float, ptr %9, align 4, !tbaa !24
  %19 = call float @llvm.fmuladd.f32(float -2.000000e+00, float %18, float %17)
  store float %19, ptr %7, align 4, !tbaa !24
  br label %32

20:                                               ; preds = %3
  %21 = load float, ptr %8, align 4, !tbaa !24
  %22 = load float, ptr %9, align 4, !tbaa !24
  %23 = fneg float %22
  %24 = fcmp olt float %21, %23
  br i1 %24, label %25, label %29

25:                                               ; preds = %20
  %26 = load float, ptr %8, align 4, !tbaa !24
  %27 = load float, ptr %9, align 4, !tbaa !24
  %28 = call float @llvm.fmuladd.f32(float 2.000000e+00, float %27, float %26)
  store float %28, ptr %7, align 4, !tbaa !24
  br label %31

29:                                               ; preds = %20
  %30 = load float, ptr %8, align 4, !tbaa !24
  store float %30, ptr %7, align 4, !tbaa !24
  br label %31

31:                                               ; preds = %29, %25
  br label %32

32:                                               ; preds = %31, %16
  %33 = load float, ptr %7, align 4, !tbaa !24
  call void @llvm.lifetime.end.p0(i64 4, ptr %9) #18
  call void @llvm.lifetime.end.p0(i64 4, ptr %8) #18
  call void @llvm.lifetime.end.p0(i64 4, ptr %7) #18
  ret float %33
}