; Function Attrs: mustprogress nofree norecurse nosync nounwind willreturn memory(none) uwtable
define noundef float @_ZN2cv16phase_unwrapping29HistogramPhaseUnwrapping_Impl4wrapEff(ptr noundef nonnull readnone align 8 captures(none) dereferenceable(104) %0, float noundef %1, float noundef %2) local_unnamed_addr #5 align 2 {
  %4 = fsub float %1, %2
  %5 = fcmp ogt float %4, 0x400921FB60000000
  br i1 %5, label %6, label %8

6:                                                ; preds = %3
  %7 = fadd float %4, 0xC01921FB60000000
  br label %12

8:                                                ; preds = %3
  %9 = fcmp olt float %4, 0xC00921FB60000000
  br i1 %9, label %10, label %12

10:                                               ; preds = %8
  %11 = fadd float %4, 0x401921FB60000000
  br label %12

12:                                               ; preds = %8, %10, %6
  %.0 = phi float [ %7, %6 ], [ %11, %10 ], [ %4, %8 ]
  ret float %.0
}